; ModuleID = '2/481.c'
source_filename = "2/481.c"
target datalayout = "e-m:e-p270:32:32-p271:32:32-p272:64:64-i64:64-f80:128-n8:16:32:64-S128"
target triple = "x86_64-pc-linux-gnu"

%struct.book = type { [1000 x i8], [26 x i8] }

@.str = private unnamed_addr constant [3 x i8] c"%d\00", align 1
@.str.1 = private unnamed_addr constant [6 x i8] c"%s %s\00", align 1
@book = common dso_local global [1000 x %struct.book] zeroinitializer, align 16
@.str.2 = private unnamed_addr constant [4 x i8] c"%c\0A\00", align 1
@.str.3 = private unnamed_addr constant [4 x i8] c"%d\0A\00", align 1
@.str.4 = private unnamed_addr constant [4 x i8] c"%s\0A\00", align 1

; Function Attrs: noinline nounwind uwtable
define dso_local i32 @main() #0 {
  %1 = alloca i32, align 4
  %2 = alloca i32, align 4
  %3 = alloca i32, align 4
  %4 = alloca i32, align 4
  %5 = alloca i32, align 4
  %6 = alloca i32, align 4
  %7 = alloca i32, align 4
  %8 = alloca i32, align 4
  %9 = alloca [26 x i32], align 16
  %10 = alloca i8, align 1
  store i32 0, i32* %1, align 4
  %11 = bitcast [26 x i32]* %9 to i8*
  call void @llvm.memset.p0i8.i64(i8* align 16 %11, i8 0, i64 104, i1 false)
  %12 = call i32 (i8*, ...) @__isoc99_scanf(i8* getelementptr inbounds ([3 x i8], [3 x i8]* @.str, i64 0, i64 0), i32* %2)
  store i32 0, i32* %3, align 4
  br label %13

13:                                               ; preds = %28, %0
  %14 = load i32, i32* %3, align 4
  %15 = load i32, i32* %2, align 4
  %16 = icmp slt i32 %14, %15
  br i1 %16, label %17, label %31

17:                                               ; preds = %13
  %18 = load i32, i32* %3, align 4
  %19 = sext i32 %18 to i64
  %20 = getelementptr inbounds [1000 x %struct.book], [1000 x %struct.book]* @book, i64 0, i64 %19
  %21 = getelementptr inbounds %struct.book, %struct.book* %20, i32 0, i32 0
  %22 = load i32, i32* %3, align 4
  %23 = sext i32 %22 to i64
  %24 = getelementptr inbounds [1000 x %struct.book], [1000 x %struct.book]* @book, i64 0, i64 %23
  %25 = getelementptr inbounds %struct.book, %struct.book* %24, i32 0, i32 1
  %26 = getelementptr inbounds [26 x i8], [26 x i8]* %25, i64 0, i64 0
  %27 = call i32 (i8*, ...) @__isoc99_scanf(i8* getelementptr inbounds ([6 x i8], [6 x i8]* @.str.1, i64 0, i64 0), [1000 x i8]* %21, i8* %26)
  br label %28

28:                                               ; preds = %17
  %29 = load i32, i32* %3, align 4
  %30 = add nsw i32 %29, 1
  store i32 %30, i32* %3, align 4
  br label %13

31:                                               ; preds = %13
  store i32 0, i32* %3, align 4
  br label %32

32:                                               ; preds = %73, %31
  %33 = load i32, i32* %3, align 4
  %34 = load i32, i32* %2, align 4
  %35 = icmp slt i32 %33, %34
  br i1 %35, label %36, label %76

36:                                               ; preds = %32
  %37 = load i32, i32* %3, align 4
  %38 = sext i32 %37 to i64
  %39 = getelementptr inbounds [1000 x %struct.book], [1000 x %struct.book]* @book, i64 0, i64 %38
  %40 = getelementptr inbounds %struct.book, %struct.book* %39, i32 0, i32 1
  %41 = getelementptr inbounds [26 x i8], [26 x i8]* %40, i64 0, i64 0
  %42 = call i64 @strlen(i8* %41) #4
  %43 = trunc i64 %42 to i32
  store i32 %43, i32* %5, align 4
  store i32 0, i32* %4, align 4
  br label %44

44:                                               ; preds = %69, %36
  %45 = load i32, i32* %4, align 4
  %46 = load i32, i32* %5, align 4
  %47 = icmp slt i32 %45, %46
  br i1 %47, label %48, label %72

48:                                               ; preds = %44
  %49 = load i32, i32* %3, align 4
  %50 = sext i32 %49 to i64
  %51 = getelementptr inbounds [1000 x %struct.book], [1000 x %struct.book]* @book, i64 0, i64 %50
  %52 = getelementptr inbounds %struct.book, %struct.book* %51, i32 0, i32 1
  %53 = load i32, i32* %4, align 4
  %54 = sext i32 %53 to i64
  %55 = getelementptr inbounds [26 x i8], [26 x i8]* %52, i64 0, i64 %54
  %56 = load i8, i8* %55, align 1
  store i8 %56, i8* %10, align 1
  %57 = load i8, i8* %10, align 1
  %58 = sext i8 %57 to i32
  store i32 %58, i32* %6, align 4
  %59 = load i32, i32* %6, align 4
  %60 = sub nsw i32 %59, 65
  %61 = sext i32 %60 to i64
  %62 = getelementptr inbounds [26 x i32], [26 x i32]* %9, i64 0, i64 %61
  %63 = load i32, i32* %62, align 4
  %64 = add nsw i32 %63, 1
  %65 = load i32, i32* %6, align 4
  %66 = sub nsw i32 %65, 65
  %67 = sext i32 %66 to i64
  %68 = getelementptr inbounds [26 x i32], [26 x i32]* %9, i64 0, i64 %67
  store i32 %64, i32* %68, align 4
  br label %69

69:                                               ; preds = %48
  %70 = load i32, i32* %4, align 4
  %71 = add nsw i32 %70, 1
  store i32 %71, i32* %4, align 4
  br label %44

72:                                               ; preds = %44
  br label %73

73:                                               ; preds = %72
  %74 = load i32, i32* %3, align 4
  %75 = add nsw i32 %74, 1
  store i32 %75, i32* %3, align 4
  br label %32

76:                                               ; preds = %32
  %77 = getelementptr inbounds [26 x i32], [26 x i32]* %9, i64 0, i64 0
  %78 = load i32, i32* %77, align 16
  store i32 %78, i32* %7, align 4
  store i32 0, i32* %8, align 4
  store i32 1, i32* %3, align 4
  br label %79

79:                                               ; preds = %96, %76
  %80 = load i32, i32* %3, align 4
  %81 = icmp slt i32 %80, 26
  br i1 %81, label %82, label %99

82:                                               ; preds = %79
  %83 = load i32, i32* %3, align 4
  %84 = sext i32 %83 to i64
  %85 = getelementptr inbounds [26 x i32], [26 x i32]* %9, i64 0, i64 %84
  %86 = load i32, i32* %85, align 4
  %87 = load i32, i32* %7, align 4
  %88 = icmp sgt i32 %86, %87
  br i1 %88, label %89, label %95

89:                                               ; preds = %82
  %90 = load i32, i32* %3, align 4
  %91 = sext i32 %90 to i64
  %92 = getelementptr inbounds [26 x i32], [26 x i32]* %9, i64 0, i64 %91
  %93 = load i32, i32* %92, align 4
  store i32 %93, i32* %7, align 4
  %94 = load i32, i32* %3, align 4
  store i32 %94, i32* %8, align 4
  br label %95

95:                                               ; preds = %89, %82
  br label %96

96:                                               ; preds = %95
  %97 = load i32, i32* %3, align 4
  %98 = add nsw i32 %97, 1
  store i32 %98, i32* %3, align 4
  br label %79

99:                                               ; preds = %79
  %100 = load i32, i32* %8, align 4
  %101 = add nsw i32 %100, 65
  %102 = trunc i32 %101 to i8
  store i8 %102, i8* %10, align 1
  %103 = load i8, i8* %10, align 1
  %104 = sext i8 %103 to i32
  %105 = call i32 (i8*, ...) @printf(i8* getelementptr inbounds ([4 x i8], [4 x i8]* @.str.2, i64 0, i64 0), i32 %104)
  %106 = load i32, i32* %7, align 4
  %107 = call i32 (i8*, ...) @printf(i8* getelementptr inbounds ([4 x i8], [4 x i8]* @.str.3, i64 0, i64 0), i32 %106)
  store i32 0, i32* %3, align 4
  br label %108

108:                                              ; preds = %149, %99
  %109 = load i32, i32* %3, align 4
  %110 = load i32, i32* %2, align 4
  %111 = icmp slt i32 %109, %110
  br i1 %111, label %112, label %152

112:                                              ; preds = %108
  %113 = load i32, i32* %3, align 4
  %114 = sext i32 %113 to i64
  %115 = getelementptr inbounds [1000 x %struct.book], [1000 x %struct.book]* @book, i64 0, i64 %114
  %116 = getelementptr inbounds %struct.book, %struct.book* %115, i32 0, i32 1
  %117 = getelementptr inbounds [26 x i8], [26 x i8]* %116, i64 0, i64 0
  %118 = call i64 @strlen(i8* %117) #4
  %119 = trunc i64 %118 to i32
  store i32 %119, i32* %5, align 4
  store i32 0, i32* %4, align 4
  br label %120

120:                                              ; preds = %145, %112
  %121 = load i32, i32* %4, align 4
  %122 = load i32, i32* %5, align 4
  %123 = icmp slt i32 %121, %122
  br i1 %123, label %124, label %148

124:                                              ; preds = %120
  %125 = load i32, i32* %3, align 4
  %126 = sext i32 %125 to i64
  %127 = getelementptr inbounds [1000 x %struct.book], [1000 x %struct.book]* @book, i64 0, i64 %126
  %128 = getelementptr inbounds %struct.book, %struct.book* %127, i32 0, i32 1
  %129 = load i32, i32* %4, align 4
  %130 = sext i32 %129 to i64
  %131 = getelementptr inbounds [26 x i8], [26 x i8]* %128, i64 0, i64 %130
  %132 = load i8, i8* %131, align 1
  %133 = sext i8 %132 to i32
  %134 = load i8, i8* %10, align 1
  %135 = sext i8 %134 to i32
  %136 = icmp eq i32 %133, %135
  br i1 %136, label %137, label %144

137:                                              ; preds = %124
  %138 = load i32, i32* %3, align 4
  %139 = sext i32 %138 to i64
  %140 = getelementptr inbounds [1000 x %struct.book], [1000 x %struct.book]* @book, i64 0, i64 %139
  %141 = getelementptr inbounds %struct.book, %struct.book* %140, i32 0, i32 0
  %142 = getelementptr inbounds [1000 x i8], [1000 x i8]* %141, i64 0, i64 0
  %143 = call i32 (i8*, ...) @printf(i8* getelementptr inbounds ([4 x i8], [4 x i8]* @.str.4, i64 0, i64 0), i8* %142)
  br label %144

144:                                              ; preds = %137, %124
  br label %145

145:                                              ; preds = %144
  %146 = load i32, i32* %4, align 4
  %147 = add nsw i32 %146, 1
  store i32 %147, i32* %4, align 4
  br label %120

148:                                              ; preds = %120
  br label %149

149:                                              ; preds = %148
  %150 = load i32, i32* %3, align 4
  %151 = add nsw i32 %150, 1
  store i32 %151, i32* %3, align 4
  br label %108

152:                                              ; preds = %108
  ret i32 0
}

; Function Attrs: argmemonly nounwind willreturn
declare void @llvm.memset.p0i8.i64(i8* nocapture writeonly, i8, i64, i1 immarg) #1

declare dso_local i32 @__isoc99_scanf(i8*, ...) #2

; Function Attrs: nounwind readonly
declare dso_local i64 @strlen(i8*) #3

declare dso_local i32 @printf(i8*, ...) #2


!llvm.module.flags = !{!0}
!llvm.ident = !{!1}

!0 = !{i32 1, !"wchar_size", i32 4}
!1 = !{!"clang version 10.0.0-4ubuntu1 "}
