; ModuleID = 'source-C-CXX/1/481.c'
source_filename = "source-C-CXX/1/481.c"
target datalayout = "e-m:e-p270:32:32-p271:32:32-p272:64:64-i64:64-f80:128-n8:16:32:64-S128"
target triple = "x86_64-pc-linux-gnu"

%struct.book = type { [1000 x i8], [26 x i8] }

@.str = private unnamed_addr constant [3 x i8] c"%d\00", align 1
@.str.1 = private unnamed_addr constant [6 x i8] c"%s %s\00", align 1
@book = dso_local global [1000 x %struct.book] zeroinitializer, align 16
@.str.2 = private unnamed_addr constant [4 x i8] c"%c\0A\00", align 1
@.str.3 = private unnamed_addr constant [4 x i8] c"%d\0A\00", align 1

; Function Attrs: nofree nounwind sspstrong uwtable
define dso_local i32 @main() local_unnamed_addr #0 {
  %1 = alloca i32, align 4
  %2 = alloca [26 x i32], align 16
  %3 = bitcast i32* %1 to i8*
  call void @llvm.lifetime.start.p0i8(i64 4, i8* nonnull %3) #6
  %4 = bitcast [26 x i32]* %2 to i8*
  call void @llvm.lifetime.start.p0i8(i64 104, i8* nonnull %4) #6
  call void @llvm.memset.p0i8.i64(i8* noundef nonnull align 16 dereferenceable(104) %4, i8 0, i64 104, i1 false)
  %5 = call i32 (i8*, ...) @__isoc99_scanf(i8* getelementptr inbounds ([3 x i8], [3 x i8]* @.str, i64 0, i64 0), i32* nonnull %1)
  %6 = load i32, i32* %1, align 4, !tbaa !5
  %7 = icmp sgt i32 %6, 0
  br i1 %7, label %12, label %69

8:                                                ; preds = %12
  %9 = icmp sgt i32 %18, 0
  br i1 %9, label %10, label %69

10:                                               ; preds = %8
  %11 = zext i32 %18 to i64
  br label %21

12:                                               ; preds = %0, %12
  %13 = phi i64 [ %17, %12 ], [ 0, %0 ]
  %14 = getelementptr inbounds [1000 x %struct.book], [1000 x %struct.book]* @book, i64 0, i64 %13, i32 0
  %15 = getelementptr inbounds [1000 x %struct.book], [1000 x %struct.book]* @book, i64 0, i64 %13, i32 1, i64 0
  %16 = call i32 (i8*, ...) @__isoc99_scanf(i8* getelementptr inbounds ([6 x i8], [6 x i8]* @.str.1, i64 0, i64 0), [1000 x i8]* nonnull %14, i8* nonnull %15)
  %17 = add nuw nsw i64 %13, 1
  %18 = load i32, i32* %1, align 4, !tbaa !5
  %19 = sext i32 %18 to i64
  %20 = icmp slt i64 %17, %19
  br i1 %20, label %12, label %8, !llvm.loop !9

21:                                               ; preds = %10, %66
  %22 = phi i64 [ 0, %10 ], [ %67, %66 ]
  %23 = getelementptr inbounds [1000 x %struct.book], [1000 x %struct.book]* @book, i64 0, i64 %22, i32 1, i64 0
  %24 = call i64 @strlen(i8* noundef nonnull %23) #7
  %25 = trunc i64 %24 to i32
  %26 = icmp sgt i32 %25, 0
  br i1 %26, label %27, label %66

27:                                               ; preds = %21
  %28 = shl i64 %24, 32
  %29 = and i64 %24, 1
  %30 = icmp eq i64 %28, 4294967296
  br i1 %30, label %55, label %31

31:                                               ; preds = %27
  %32 = ashr exact i64 %28, 32
  %33 = sub nsw i64 %32, %29
  br label %34

34:                                               ; preds = %34, %31
  %35 = phi i64 [ 0, %31 ], [ %52, %34 ]
  %36 = phi i64 [ %33, %31 ], [ %53, %34 ]
  %37 = getelementptr inbounds [1000 x %struct.book], [1000 x %struct.book]* @book, i64 0, i64 %22, i32 1, i64 %35
  %38 = load i8, i8* %37, align 2, !tbaa !11
  %39 = sext i8 %38 to i64
  %40 = add nsw i64 %39, -65
  %41 = getelementptr inbounds [26 x i32], [26 x i32]* %2, i64 0, i64 %40
  %42 = load i32, i32* %41, align 4, !tbaa !5
  %43 = add nsw i32 %42, 1
  store i32 %43, i32* %41, align 4, !tbaa !5
  %44 = or i64 %35, 1
  %45 = getelementptr inbounds [1000 x %struct.book], [1000 x %struct.book]* @book, i64 0, i64 %22, i32 1, i64 %44
  %46 = load i8, i8* %45, align 1, !tbaa !11
  %47 = sext i8 %46 to i64
  %48 = add nsw i64 %47, -65
  %49 = getelementptr inbounds [26 x i32], [26 x i32]* %2, i64 0, i64 %48
  %50 = load i32, i32* %49, align 4, !tbaa !5
  %51 = add nsw i32 %50, 1
  store i32 %51, i32* %49, align 4, !tbaa !5
  %52 = add nuw nsw i64 %35, 2
  %53 = add i64 %36, -2
  %54 = icmp eq i64 %53, 0
  br i1 %54, label %55, label %34, !llvm.loop !12

55:                                               ; preds = %34, %27
  %56 = phi i64 [ 0, %27 ], [ %52, %34 ]
  %57 = icmp eq i64 %29, 0
  br i1 %57, label %66, label %58

58:                                               ; preds = %55
  %59 = getelementptr inbounds [1000 x %struct.book], [1000 x %struct.book]* @book, i64 0, i64 %22, i32 1, i64 %56
  %60 = load i8, i8* %59, align 1, !tbaa !11
  %61 = sext i8 %60 to i64
  %62 = add nsw i64 %61, -65
  %63 = getelementptr inbounds [26 x i32], [26 x i32]* %2, i64 0, i64 %62
  %64 = load i32, i32* %63, align 4, !tbaa !5
  %65 = add nsw i32 %64, 1
  store i32 %65, i32* %63, align 4, !tbaa !5
  br label %66

66:                                               ; preds = %58, %55, %21
  %67 = add nuw nsw i64 %22, 1
  %68 = icmp eq i64 %67, %11
  br i1 %68, label %69, label %21, !llvm.loop !13

69:                                               ; preds = %66, %0, %8
  %70 = getelementptr inbounds [26 x i32], [26 x i32]* %2, i64 0, i64 0
  %71 = load i32, i32* %70, align 16, !tbaa !5
  %72 = getelementptr inbounds [26 x i32], [26 x i32]* %2, i64 0, i64 1
  %73 = load i32, i32* %72, align 4, !tbaa !5
  %74 = icmp sgt i32 %73, %71
  %75 = select i1 %74, i32 %73, i32 %71
  %76 = getelementptr inbounds [26 x i32], [26 x i32]* %2, i64 0, i64 2
  %77 = load i32, i32* %76, align 8, !tbaa !5
  %78 = icmp sgt i32 %77, %75
  %79 = select i1 %78, i32 %77, i32 %75
  %80 = getelementptr inbounds [26 x i32], [26 x i32]* %2, i64 0, i64 3
  %81 = load i32, i32* %80, align 4, !tbaa !5
  %82 = icmp sgt i32 %81, %79
  %83 = select i1 %82, i32 %81, i32 %79
  %84 = getelementptr inbounds [26 x i32], [26 x i32]* %2, i64 0, i64 4
  %85 = load i32, i32* %84, align 16, !tbaa !5
  %86 = icmp sgt i32 %85, %83
  %87 = select i1 %86, i32 %85, i32 %83
  %88 = getelementptr inbounds [26 x i32], [26 x i32]* %2, i64 0, i64 5
  %89 = load i32, i32* %88, align 4, !tbaa !5
  %90 = icmp sgt i32 %89, %87
  %91 = select i1 %90, i32 %89, i32 %87
  %92 = getelementptr inbounds [26 x i32], [26 x i32]* %2, i64 0, i64 6
  %93 = load i32, i32* %92, align 8, !tbaa !5
  %94 = icmp sgt i32 %93, %91
  %95 = select i1 %94, i32 %93, i32 %91
  %96 = getelementptr inbounds [26 x i32], [26 x i32]* %2, i64 0, i64 7
  %97 = load i32, i32* %96, align 4, !tbaa !5
  %98 = icmp sgt i32 %97, %95
  %99 = select i1 %98, i32 %97, i32 %95
  %100 = getelementptr inbounds [26 x i32], [26 x i32]* %2, i64 0, i64 8
  %101 = load i32, i32* %100, align 16, !tbaa !5
  %102 = icmp sgt i32 %101, %99
  %103 = select i1 %102, i32 %101, i32 %99
  %104 = getelementptr inbounds [26 x i32], [26 x i32]* %2, i64 0, i64 9
  %105 = load i32, i32* %104, align 4, !tbaa !5
  %106 = icmp sgt i32 %105, %103
  %107 = select i1 %106, i32 %105, i32 %103
  %108 = getelementptr inbounds [26 x i32], [26 x i32]* %2, i64 0, i64 10
  %109 = load i32, i32* %108, align 8, !tbaa !5
  %110 = icmp sgt i32 %109, %107
  %111 = select i1 %110, i32 %109, i32 %107
  %112 = getelementptr inbounds [26 x i32], [26 x i32]* %2, i64 0, i64 11
  %113 = load i32, i32* %112, align 4, !tbaa !5
  %114 = icmp sgt i32 %113, %111
  %115 = select i1 %114, i32 %113, i32 %111
  %116 = getelementptr inbounds [26 x i32], [26 x i32]* %2, i64 0, i64 12
  %117 = load i32, i32* %116, align 16, !tbaa !5
  %118 = icmp sgt i32 %117, %115
  %119 = select i1 %118, i32 %117, i32 %115
  %120 = getelementptr inbounds [26 x i32], [26 x i32]* %2, i64 0, i64 13
  %121 = load i32, i32* %120, align 4, !tbaa !5
  %122 = icmp sgt i32 %121, %119
  %123 = select i1 %122, i32 %121, i32 %119
  %124 = getelementptr inbounds [26 x i32], [26 x i32]* %2, i64 0, i64 14
  %125 = load i32, i32* %124, align 8, !tbaa !5
  %126 = icmp sgt i32 %125, %123
  %127 = select i1 %126, i32 %125, i32 %123
  %128 = getelementptr inbounds [26 x i32], [26 x i32]* %2, i64 0, i64 15
  %129 = load i32, i32* %128, align 4, !tbaa !5
  %130 = icmp sgt i32 %129, %127
  %131 = select i1 %130, i32 %129, i32 %127
  %132 = getelementptr inbounds [26 x i32], [26 x i32]* %2, i64 0, i64 16
  %133 = load i32, i32* %132, align 16, !tbaa !5
  %134 = icmp sgt i32 %133, %131
  %135 = select i1 %134, i32 %133, i32 %131
  %136 = getelementptr inbounds [26 x i32], [26 x i32]* %2, i64 0, i64 17
  %137 = load i32, i32* %136, align 4, !tbaa !5
  %138 = icmp sgt i32 %137, %135
  %139 = select i1 %138, i32 %137, i32 %135
  %140 = getelementptr inbounds [26 x i32], [26 x i32]* %2, i64 0, i64 18
  %141 = load i32, i32* %140, align 8, !tbaa !5
  %142 = icmp sgt i32 %141, %139
  %143 = select i1 %142, i32 %141, i32 %139
  %144 = getelementptr inbounds [26 x i32], [26 x i32]* %2, i64 0, i64 19
  %145 = load i32, i32* %144, align 4, !tbaa !5
  %146 = icmp sgt i32 %145, %143
  %147 = select i1 %146, i32 %145, i32 %143
  %148 = getelementptr inbounds [26 x i32], [26 x i32]* %2, i64 0, i64 20
  %149 = load i32, i32* %148, align 16, !tbaa !5
  %150 = icmp sgt i32 %149, %147
  %151 = select i1 %150, i32 %149, i32 %147
  %152 = getelementptr inbounds [26 x i32], [26 x i32]* %2, i64 0, i64 21
  %153 = load i32, i32* %152, align 4, !tbaa !5
  %154 = icmp sgt i32 %153, %151
  %155 = select i1 %154, i32 %153, i32 %151
  %156 = getelementptr inbounds [26 x i32], [26 x i32]* %2, i64 0, i64 22
  %157 = load i32, i32* %156, align 8, !tbaa !5
  %158 = icmp sgt i32 %157, %155
  %159 = select i1 %158, i32 %157, i32 %155
  %160 = getelementptr inbounds [26 x i32], [26 x i32]* %2, i64 0, i64 23
  %161 = load i32, i32* %160, align 4, !tbaa !5
  %162 = icmp sgt i32 %161, %159
  %163 = select i1 %162, i32 %161, i32 %159
  %164 = getelementptr inbounds [26 x i32], [26 x i32]* %2, i64 0, i64 24
  %165 = load i32, i32* %164, align 16, !tbaa !5
  %166 = icmp sgt i32 %165, %163
  %167 = select i1 %166, i32 %165, i32 %163
  %168 = getelementptr inbounds [26 x i32], [26 x i32]* %2, i64 0, i64 25
  %169 = load i32, i32* %168, align 4, !tbaa !5
  %170 = icmp sgt i32 %169, %167
  %171 = select i1 %170, i32 %169, i32 %167
  %172 = select i1 %74, i32 66, i32 65
  %173 = select i1 %78, i32 67, i32 %172
  %174 = select i1 %82, i32 68, i32 %173
  %175 = select i1 %86, i32 69, i32 %174
  %176 = select i1 %90, i32 70, i32 %175
  %177 = select i1 %94, i32 71, i32 %176
  %178 = select i1 %98, i32 72, i32 %177
  %179 = select i1 %102, i32 73, i32 %178
  %180 = select i1 %106, i32 74, i32 %179
  %181 = select i1 %110, i32 75, i32 %180
  %182 = select i1 %114, i32 76, i32 %181
  %183 = select i1 %118, i32 77, i32 %182
  %184 = select i1 %122, i32 78, i32 %183
  %185 = select i1 %126, i32 79, i32 %184
  %186 = select i1 %130, i32 80, i32 %185
  %187 = select i1 %134, i32 81, i32 %186
  %188 = select i1 %138, i32 82, i32 %187
  %189 = select i1 %142, i32 83, i32 %188
  %190 = select i1 %146, i32 84, i32 %189
  %191 = select i1 %150, i32 85, i32 %190
  %192 = select i1 %154, i32 86, i32 %191
  %193 = select i1 %158, i32 87, i32 %192
  %194 = select i1 %162, i32 88, i32 %193
  %195 = select i1 %166, i32 89, i32 %194
  %196 = select i1 %170, i32 90, i32 %195
  %197 = call i32 (i8*, ...) @printf(i8* nonnull dereferenceable(1) getelementptr inbounds ([4 x i8], [4 x i8]* @.str.2, i64 0, i64 0), i32 %196)
  %198 = call i32 (i8*, ...) @printf(i8* nonnull dereferenceable(1) getelementptr inbounds ([4 x i8], [4 x i8]* @.str.3, i64 0, i64 0), i32 %171)
  %199 = load i32, i32* %1, align 4, !tbaa !5
  %200 = icmp sgt i32 %199, 0
  br i1 %200, label %201, label %230

201:                                              ; preds = %69, %225
  %202 = phi i32 [ %226, %225 ], [ %199, %69 ]
  %203 = phi i64 [ %227, %225 ], [ 0, %69 ]
  %204 = getelementptr inbounds [1000 x %struct.book], [1000 x %struct.book]* @book, i64 0, i64 %203, i32 1, i64 0
  %205 = call i64 @strlen(i8* noundef nonnull %204) #7
  %206 = trunc i64 %205 to i32
  %207 = getelementptr inbounds [1000 x %struct.book], [1000 x %struct.book]* @book, i64 0, i64 %203, i32 0, i64 0
  %208 = icmp sgt i32 %206, 0
  br i1 %208, label %209, label %225

209:                                              ; preds = %201
  %210 = shl i64 %205, 32
  %211 = ashr exact i64 %210, 32
  br label %212

212:                                              ; preds = %209, %220
  %213 = phi i64 [ 0, %209 ], [ %221, %220 ]
  %214 = getelementptr inbounds [1000 x %struct.book], [1000 x %struct.book]* @book, i64 0, i64 %203, i32 1, i64 %213
  %215 = load i8, i8* %214, align 1, !tbaa !11
  %216 = sext i8 %215 to i32
  %217 = icmp eq i32 %196, %216
  br i1 %217, label %218, label %220

218:                                              ; preds = %212
  %219 = call i32 @puts(i8* nonnull %207)
  br label %220

220:                                              ; preds = %212, %218
  %221 = add nuw nsw i64 %213, 1
  %222 = icmp eq i64 %221, %211
  br i1 %222, label %223, label %212, !llvm.loop !14

223:                                              ; preds = %220
  %224 = load i32, i32* %1, align 4, !tbaa !5
  br label %225

225:                                              ; preds = %223, %201
  %226 = phi i32 [ %224, %223 ], [ %202, %201 ]
  %227 = add nuw nsw i64 %203, 1
  %228 = sext i32 %226 to i64
  %229 = icmp slt i64 %227, %228
  br i1 %229, label %201, label %230, !llvm.loop !15

230:                                              ; preds = %225, %69
  call void @llvm.lifetime.end.p0i8(i64 104, i8* nonnull %4) #6
  call void @llvm.lifetime.end.p0i8(i64 4, i8* nonnull %3) #6
  ret i32 0
}

; Function Attrs: argmemonly mustprogress nofree nosync nounwind willreturn
declare void @llvm.lifetime.start.p0i8(i64 immarg, i8* nocapture) #1

; Function Attrs: argmemonly mustprogress nofree nounwind willreturn writeonly
declare void @llvm.memset.p0i8.i64(i8* nocapture writeonly, i8, i64, i1 immarg) #2

; Function Attrs: nofree nounwind
declare noundef i32 @__isoc99_scanf(i8* nocapture noundef readonly, ...) local_unnamed_addr #3

; Function Attrs: argmemonly mustprogress nofree nounwind readonly willreturn
declare i64 @strlen(i8* nocapture) local_unnamed_addr #4

; Function Attrs: nofree nounwind
declare noundef i32 @printf(i8* nocapture noundef readonly, ...) local_unnamed_addr #3

; Function Attrs: argmemonly mustprogress nofree nosync nounwind willreturn
declare void @llvm.lifetime.end.p0i8(i64 immarg, i8* nocapture) #1

; Function Attrs: nofree nounwind
declare noundef i32 @puts(i8* nocapture noundef readonly) local_unnamed_addr #5


!llvm.module.flags = !{!0, !1, !2, !3}
!llvm.ident = !{!4}

!0 = !{i32 1, !"wchar_size", i32 4}
!1 = !{i32 7, !"PIC Level", i32 2}
!2 = !{i32 7, !"PIE Level", i32 2}
!3 = !{i32 7, !"uwtable", i32 1}
!4 = !{!"clang version 13.0.0"}
!5 = !{!6, !6, i64 0}
!6 = !{!"int", !7, i64 0}
!7 = !{!"omnipotent char", !8, i64 0}
!8 = !{!"Simple C/C++ TBAA"}
!9 = distinct !{!9, !10}
!10 = !{!"llvm.loop.mustprogress"}
!11 = !{!7, !7, i64 0}
!12 = distinct !{!12, !10}
!13 = distinct !{!13, !10}
!14 = distinct !{!14, !10}
!15 = distinct !{!15, !10}
